target datalayout = "e-m:e-p270:32:32-p271:32:32-p272:64:64-i64:64-i128:128-f80:128-n8:16:32:64-S128"
target triple = "x86_64-pc-linux-gnu"

%struct.sigaction = type { %union.anon, %struct.__sigset_t, i32, ptr }
%union.anon = type { ptr }
%struct.__sigset_t = type { [16 x i64] }

@background_resume_msg = internal global ptr null, align 8
@ttou_received = internal global i32 0, align 4
@.str.8 = private unnamed_addr constant [8 x i8] c"error: \00", align 1
@.str.9 = private unnamed_addr constant [2 x i8] c"\0A\00", align 1

; Function Attrs: nounwind uwtable
define internal void @write_err(ptr noundef %0) #0 {
  %2 = alloca ptr, align 8
  store ptr %0, ptr %2, align 8, !tbaa !8
  %3 = call i64 @write_in_full(i32 noundef 2, ptr noundef @.str.8, i64 noundef 7)
  %4 = load ptr, ptr %2, align 8, !tbaa !8
  %5 = load ptr, ptr %2, align 8, !tbaa !8
  %6 = call i64 @strlen(ptr noundef %5) #13
  %7 = call i64 @write_in_full(i32 noundef 2, ptr noundef %4, i64 noundef %6)
  %8 = call i64 @write_in_full(i32 noundef 2, ptr noundef @.str.9, i64 noundef 1)
  ret void
}

; Function Attrs: nounwind uwtable
define internal void @print_background_resume_msg(i32 noundef %0) #0 {
  %2 = alloca i32, align 4
  %3 = alloca i32, align 4
  %4 = alloca %struct.__sigset_t, align 8
  %5 = alloca %struct.sigaction, align 8
  %6 = alloca %struct.sigaction, align 8
  store i32 %0, ptr %2, align 4, !tbaa !4
  call void @llvm.lifetime.start.p0(i64 4, ptr %3) #10
  %7 = call ptr @__errno_location() #11
  %8 = load i32, ptr %7, align 4, !tbaa !4
  store i32 %8, ptr %3, align 4, !tbaa !4
  call void @llvm.lifetime.start.p0(i64 128, ptr %4) #10
  call void @llvm.lifetime.start.p0(i64 152, ptr %5) #10
  call void @llvm.lifetime.start.p0(i64 152, ptr %6) #10
  call void @llvm.memset.p0.i64(ptr align 8 %6, i8 0, i64 152, i1 false)
  store volatile i32 1, ptr @ttou_received, align 4, !tbaa !4
  %9 = load ptr, ptr @background_resume_msg, align 8, !tbaa !8
  call void @write_err(ptr noundef %9)
  %10 = load i32, ptr %2, align 4, !tbaa !4
  %11 = call i32 @sigaction(i32 noundef %10, ptr noundef %6, ptr noundef %5) #10
  %12 = load i32, ptr %2, align 4, !tbaa !4
  %13 = call i32 @raise(i32 noundef %12) #10
  %14 = call i32 @sigemptyset(ptr noundef %4) #10
  %15 = load i32, ptr %2, align 4, !tbaa !4
  %16 = call i32 @sigaddset(ptr noundef %4, i32 noundef %15) #10
  %17 = call i32 @sigprocmask(i32 noundef 1, ptr noundef %4, ptr noundef null) #10
  %18 = call i32 @sigprocmask(i32 noundef 0, ptr noundef %4, ptr noundef null) #10
  %19 = load i32, ptr %2, align 4, !tbaa !4
  %20 = call i32 @sigaction(i32 noundef %19, ptr noundef %5, ptr noundef null) #10
  %21 = load i32, ptr %3, align 4, !tbaa !4
  %22 = call ptr @__errno_location() #11
  store i32 %21, ptr %22, align 4, !tbaa !4
  call void @llvm.lifetime.end.p0(i64 152, ptr %6) #10
  call void @llvm.lifetime.end.p0(i64 152, ptr %5) #10
  call void @llvm.lifetime.end.p0(i64 128, ptr %4) #10
  call void @llvm.lifetime.end.p0(i64 4, ptr %3) #10
  ret void
}