; Function Attrs: nounwind uwtable
define internal void @print_background_resume_msg(i32 noundef %0) #0 {
  %2 = alloca %struct.__sigset_t, align 8
  %3 = alloca %struct.sigaction, align 8
  %4 = alloca %struct.sigaction, align 8
  %5 = tail call ptr @__errno_location() #14
  %6 = load i32, ptr %5, align 4, !tbaa !4
  call void @llvm.lifetime.start.p0(i64 128, ptr nonnull %2) #13
  call void @llvm.lifetime.start.p0(i64 152, ptr nonnull %3) #13
  call void @llvm.lifetime.start.p0(i64 152, ptr nonnull %4) #13
  call void @llvm.memset.p0.i64(ptr noundef nonnull align 8 dereferenceable(152) %4, i8 0, i64 152, i1 false)
  store volatile i32 1, ptr @ttou_received, align 4, !tbaa !4
  %7 = load ptr, ptr @background_resume_msg, align 8, !tbaa !8
  %8 = tail call i64 @write_in_full(i32 noundef 2, ptr noundef nonnull @.str.8, i64 noundef 7) #13
  %9 = tail call i64 @strlen(ptr noundef nonnull dereferenceable(1) %7) #15
  %10 = tail call i64 @write_in_full(i32 noundef 2, ptr noundef nonnull %7, i64 noundef %9) #13
  %11 = tail call i64 @write_in_full(i32 noundef 2, ptr noundef nonnull @.str.9, i64 noundef 1) #13
  %12 = call i32 @sigaction(i32 noundef %0, ptr noundef nonnull %4, ptr noundef nonnull %3) #13
  %13 = call i32 @raise(i32 noundef %0) #13
  %14 = call i32 @sigemptyset(ptr noundef nonnull %2) #13
  %15 = call i32 @sigaddset(ptr noundef nonnull %2, i32 noundef %0) #13
  %16 = call i32 @sigprocmask(i32 noundef 1, ptr noundef nonnull %2, ptr noundef null) #13
  %17 = call i32 @sigprocmask(i32 noundef 0, ptr noundef nonnull %2, ptr noundef null) #13
  %18 = call i32 @sigaction(i32 noundef %0, ptr noundef nonnull %3, ptr noundef null) #13
  store i32 %6, ptr %5, align 4, !tbaa !4
  call void @llvm.lifetime.end.p0(i64 152, ptr nonnull %4) #13
  call void @llvm.lifetime.end.p0(i64 152, ptr nonnull %3) #13
  call void @llvm.lifetime.end.p0(i64 128, ptr nonnull %2) #13
  ret void
}